Certificate:
    Data:
        Version: 1 (0x0)
        Serial Number:
            3e:99:5f:83:9d:59:70:05:e5:29:8c:a9:53:06:09:5f:a8:23:77:ed
        Signature Algorithm: ecdsa-with-SHA256
        Issuer: C = US, ST = CA, O = Company Name, CN = Company Name CA, emailAddress = support@company_name.com
        Validity
            Not Before: May 22 23:16:04 2025 GMT
            Not After : May 22 23:16:04 2027 GMT
        Subject: C = US, ST = CA, O = Company Name, emailAddress = support@company_name.com, CN = RsActive
        Subject Public Key Info:
            Public Key Algorithm: rsaEncryption
                Public-Key: (2048 bit)
                Modulus:
                    00:99:89:53:ff:c8:aa:95:b5:e4:90:ac:bc:4e:00:
                    b3:63:5d:ac:77:98:3b:93:25:e9:bb:3f:8a:44:18:
                    5d:4a:be:e3:b4:b9:40:55:81:0c:df:a3:c2:86:9e:
                    84:5d:60:ba:6f:a6:06:7c:a5:9a:0c:f3:47:62:fe:
                    a1:9e:72:b7:24:e8:e8:b6:6d:1e:14:8a:35:c0:dd:
                    f1:77:d9:0c:7a:ad:c5:a8:f6:90:0b:64:f5:35:ee:
                    72:45:50:04:4a:73:76:1e:06:b7:ef:96:8a:4b:e3:
                    b1:c4:b6:9d:f3:12:3e:f3:80:02:ac:b8:b8:f1:c6:
                    3b:45:62:6a:6c:1e:7d:3e:ec:97:05:9f:39:4b:57:
                    21:1d:f9:15:b3:93:44:24:27:ff:32:1b:07:dd:fb:
                    d6:d2:ac:19:17:18:56:87:a0:3c:03:c1:4e:c8:e1:
                    a6:68:e5:bf:05:95:47:9a:7a:9c:c4:58:ea:7b:2d:
                    fe:f2:da:52:b2:53:7e:e3:32:0e:5f:e8:8d:31:ff:
                    16:de:ed:cd:14:0e:b8:ef:9a:3a:4d:ad:9c:fc:17:
                    2e:6a:43:91:61:98:4e:35:2b:a3:58:f8:3e:44:7b:
                    36:dc:d0:56:93:38:2d:30:e0:75:7c:65:99:bc:45:
                    b7:1e:99:87:b1:3d:06:43:43:ca:86:cb:9c:d2:d3:
                    00:b3
                Exponent: 65537 (0x10001)
    Signature Algorithm: ecdsa-with-SHA256
    Signature Value:
        30:45:02:20:3c:94:73:7b:d0:82:28:7e:0d:de:80:0a:4e:65:
        66:ca:06:b9:61:42:00:15:92:fc:4f:25:e0:ed:8f:ae:5c:63:
        02:21:00:c3:a7:b9:fc:c1:11:56:a3:84:ee:97:4e:e2:0f:d4:
        d3:16:0a:72:f9:f0:3b:16:9e:7d:b9:95:e6:74:66:23:3a
-----BEGIN CERTIFICATE-----
MIICpzCCAk0CFD6ZX4OdWXAF5SmMqVMGCV+oI3ftMAoGCCqGSM49BAMCMHQxCzAJ
BgNVBAYTAlVTMQswCQYDVQQIDAJDQTEVMBMGA1UECgwMQ29tcGFueSBOYW1lMRgw
FgYDVQQDDA9Db21wYW55IE5hbWUgQ0ExJzAlBgkqhkiG9w0BCQEWGHN1cHBvcnRA
Y29tcGFueV9uYW1lLmNvbTAeFw0yNTA1MjIyMzE2MDRaFw0yNzA1MjIyMzE2MDRa
MG0xCzAJBgNVBAYTAlVTMQswCQYDVQQIDAJDQTEVMBMGA1UECgwMQ29tcGFueSBO
YW1lMScwJQYJKoZIhvcNAQkBFhhzdXBwb3J0QGNvbXBhbnlfbmFtZS5jb20xETAP
BgNVBAMMCFJzQWN0aXZlMIIBIjANBgkqhkiG9w0BAQEFAAOCAQ8AMIIBCgKCAQEA
mYlT/8iqlbXkkKy8TgCzY12sd5g7kyXpuz+KRBhdSr7jtLlAVYEM36PChp6EXWC6
b6YGfKWaDPNHYv6hnnK3JOjotm0eFIo1wN3xd9kMeq3FqPaQC2T1Ne5yRVAESnN2
Hga375aKS+OxxLad8xI+84ACrLi48cY7RWJqbB59PuyXBZ85S1chHfkVs5NEJCf/
MhsH3fvW0qwZFxhWh6A8A8FOyOGmaOW/BZVHmnqcxFjqey3+8tpSslN+4zIOX+iN
Mf8W3u3NFA6475o6Ta2c/BcuakORYZhONSujWPg+RHs23NBWkzgtMOB1fGWZvEW3
HpmHsT0GQ0PKhsuc0tMAswIDAQABMAoGCCqGSM49BAMCA0gAMEUCIDyUc3vQgih+
Dd6ACk5lZsoGuWFCABWS/E8l4O2PrlxjAiEAw6e5/MERVqOE7pdO4g/U0xYKcvnw
OxaefbmV5nRmIzo=
-----END CERTIFICATE-----
