Certificate:
    Data:
        Version: 1 (0x0)
        Serial Number:
            19:43:45:33:d1:4d:73:7c:0a:65:12:26:b1:8b:12:2c:ef:60:39:09
        Signature Algorithm: ecdsa-with-SHA256
        Issuer: C = US, ST = CA, O = Company Name, CN = Company Name CA, emailAddress = support@company_name.com
        Validity
            Not Before: May 22 23:16:04 2025 GMT
            Not After : May 21 23:16:04 2030 GMT
        Subject: C = US, ST = CA, O = Company Name, CN = Company Name CA, emailAddress = support@company_name.com
        Subject Public Key Info:
            Public Key Algorithm: id-ecPublicKey
                Public-Key: (256 bit)
                pub:
                    04:5e:25:29:be:2a:e7:65:80:39:b8:4b:e6:48:66:
                    5c:41:26:4b:ad:4a:5d:b8:a1:8c:77:57:57:55:c8:
                    5e:c8:38:10:27:7b:b6:88:a4:45:59:57:58:3d:91:
                    ba:ec:fb:43:01:f2:5b:8f:59:26:4a:d8:4b:96:b0:
                    5c:ff:ae:5d:5e
                ASN1 OID: prime256v1
                NIST CURVE: P-256
    Signature Algorithm: ecdsa-with-SHA256
    Signature Value:
        30:46:02:21:00:f7:f1:5d:0b:97:07:58:33:79:80:3a:ac:1d:
        9b:53:91:29:5c:d8:56:96:0c:cb:9f:67:5f:82:f5:fd:cc:e3:
        af:02:21:00:95:1d:32:b0:37:2e:97:6b:6a:d7:c3:99:6d:9c:
        a8:66:dc:b7:9d:11:ce:a4:e4:06:5f:4b:2f:4f:d2:05:3c:2f
-----BEGIN CERTIFICATE-----
MIIB5DCCAYkCFBlDRTPRTXN8CmUSJrGLEizvYDkJMAoGCCqGSM49BAMCMHQxCzAJ
BgNVBAYTAlVTMQswCQYDVQQIDAJDQTEVMBMGA1UECgwMQ29tcGFueSBOYW1lMRgw
FgYDVQQDDA9Db21wYW55IE5hbWUgQ0ExJzAlBgkqhkiG9w0BCQEWGHN1cHBvcnRA
Y29tcGFueV9uYW1lLmNvbTAeFw0yNTA1MjIyMzE2MDRaFw0zMDA1MjEyMzE2MDRa
MHQxCzAJBgNVBAYTAlVTMQswCQYDVQQIDAJDQTEVMBMGA1UECgwMQ29tcGFueSBO
YW1lMRgwFgYDVQQDDA9Db21wYW55IE5hbWUgQ0ExJzAlBgkqhkiG9w0BCQEWGHN1
cHBvcnRAY29tcGFueV9uYW1lLmNvbTBZMBMGByqGSM49AgEGCCqGSM49AwEHA0IA
BF4lKb4q52WAObhL5khmXEEmS61KXbihjHdXV1XIXsg4ECd7toikRVlXWD2Ruuz7
QwHyW49ZJkrYS5awXP+uXV4wCgYIKoZIzj0EAwIDSQAwRgIhAPfxXQuXB1gzeYA6
rB2bU5EpXNhWlgzLn2dfgvX9zOOvAiEAlR0ysDcul2tq18OZbZyoZty3nRHOpOQG
X0svT9IFPC8=
-----END CERTIFICATE-----
