Certificate:
    Data:
        Version: 1 (0x0)
        Serial Number:
            34:bb:17:0f:bd:6b:37:52:bd:5a:34:f3:89:f5:3b:6f:fe:bc:67:65
        Signature Algorithm: ecdsa-with-SHA256
        Issuer: C = US, ST = CA, O = Company Name, CN = Company Name CA, emailAddress = support@company_name.com
        Validity
            Not Before: May 22 23:16:04 2025 GMT
            Not After : May 22 23:16:04 2027 GMT
        Subject: C = US, ST = CA, O = Company Name, emailAddress = support@company_name.com, CN = RsCloud
        Subject Public Key Info:
            Public Key Algorithm: rsaEncryption
                Public-Key: (2048 bit)
                Modulus:
                    00:cc:c2:70:a3:c7:a9:43:b0:d3:29:93:9c:16:a6:
                    d1:df:ae:0a:ca:48:d2:13:c2:3a:ab:43:5e:ae:f7:
                    e0:23:c3:2e:64:71:3e:72:c6:87:02:d8:46:2a:5d:
                    4a:59:6e:f4:7c:da:ea:f0:a3:43:41:7e:b2:f0:f6:
                    48:cd:93:2d:4f:fe:21:1e:2c:6d:a4:85:a1:ba:72:
                    e0:8f:ed:6b:f0:a5:36:be:fc:cb:69:9f:10:db:18:
                    21:16:d9:ee:d5:4f:a6:9e:d0:35:42:af:a2:4d:db:
                    ae:47:e4:25:9f:f8:d0:00:55:02:93:89:43:a9:b3:
                    af:f7:a0:c4:a1:cb:23:c7:e2:53:55:26:45:6f:a1:
                    d7:78:93:0a:bc:95:32:79:44:be:f5:a5:65:b0:b6:
                    89:0d:bb:f1:bc:a5:77:54:ff:12:27:6c:b1:4b:c8:
                    4f:53:99:d2:78:76:ca:84:a2:87:4b:9f:af:02:5f:
                    08:cd:4c:de:b2:a4:91:63:53:77:cf:26:13:55:da:
                    21:75:f3:3f:56:2a:af:de:b5:d9:21:d6:04:c5:da:
                    6e:ba:12:1c:7d:92:22:6d:18:ff:06:91:9c:67:66:
                    14:5c:c7:d3:48:e7:ef:98:1b:d6:60:cd:40:5e:62:
                    3f:b1:66:27:f2:77:4e:94:b3:75:a6:20:b5:d8:30:
                    9b:e9
                Exponent: 65537 (0x10001)
    Signature Algorithm: ecdsa-with-SHA256
    Signature Value:
        30:45:02:20:41:20:78:af:29:22:20:aa:91:dc:42:96:89:91:
        74:b0:7c:76:21:d6:cd:cb:df:97:16:a8:fe:83:a1:5a:ce:f6:
        02:21:00:88:d7:ab:33:73:6b:2e:ba:90:33:1a:95:6c:de:e6:
        17:da:d9:8d:61:86:20:1f:9a:89:9f:23:90:e9:81:00:41
-----BEGIN CERTIFICATE-----
MIICpjCCAkwCFDS7Fw+9azdSvVo084n1O2/+vGdlMAoGCCqGSM49BAMCMHQxCzAJ
BgNVBAYTAlVTMQswCQYDVQQIDAJDQTEVMBMGA1UECgwMQ29tcGFueSBOYW1lMRgw
FgYDVQQDDA9Db21wYW55IE5hbWUgQ0ExJzAlBgkqhkiG9w0BCQEWGHN1cHBvcnRA
Y29tcGFueV9uYW1lLmNvbTAeFw0yNTA1MjIyMzE2MDRaFw0yNzA1MjIyMzE2MDRa
MGwxCzAJBgNVBAYTAlVTMQswCQYDVQQIDAJDQTEVMBMGA1UECgwMQ29tcGFueSBO
YW1lMScwJQYJKoZIhvcNAQkBFhhzdXBwb3J0QGNvbXBhbnlfbmFtZS5jb20xEDAO
BgNVBAMMB1JzQ2xvdWQwggEiMA0GCSqGSIb3DQEBAQUAA4IBDwAwggEKAoIBAQDM
wnCjx6lDsNMpk5wWptHfrgrKSNITwjqrQ16u9+Ajwy5kcT5yxocC2EYqXUpZbvR8
2urwo0NBfrLw9kjNky1P/iEeLG2khaG6cuCP7WvwpTa+/MtpnxDbGCEW2e7VT6ae
0DVCr6JN265H5CWf+NAAVQKTiUOps6/3oMShyyPH4lNVJkVvodd4kwq8lTJ5RL71
pWWwtokNu/G8pXdU/xInbLFLyE9TmdJ4dsqEoodLn68CXwjNTN6ypJFjU3fPJhNV
2iF18z9WKq/etdkh1gTF2m66Ehx9kiJtGP8GkZxnZhRcx9NI5++YG9ZgzUBeYj+x
Zifyd06Us3WmILXYMJvpAgMBAAEwCgYIKoZIzj0EAwIDSAAwRQIgQSB4rykiIKqR
3EKWiZF0sHx2IdbNy9+XFqj+g6FazvYCIQCI16szc2suupAzGpVs3uYX2tmNYYYg
H5qJnyOQ6YEAQQ==
-----END CERTIFICATE-----
