Certificate:
    Data:
        Version: 1 (0x0)
        Serial Number:
            75:a6:91:a1:73:36:81:d2:a5:28:3f:41:d6:77:5d:c2:f4:8b:07:d1
        Signature Algorithm: NULL
        Issuer: C = US, ST = CA, O = Real Time Innovations, emailAddress = meECdsa@rti.com, CN = dtlsexampleECdsa
        Validity
            Not Before: Apr 23 08:39:26 2021 GMT
            Not After : Apr 22 08:39:26 2026 GMT
        Subject: C = US, ST = CA, O = Real Time Innovations, emailAddress = meECdsa@rti.com, CN = dtlsexampleECdsa
        Subject Public Key Info:
            Public Key Algorithm: id-ecPublicKey
                Public-Key: (256 bit)
                pub:
                    04:17:17:07:45:ed:b6:9d:9d:03:f2:8b:13:be:6b:
                    5c:1e:67:d2:d8:7b:9f:03:5b:a9:83:87:4e:66:97:
                    08:fb:57:09:53:78:14:1f:e4:bd:ff:85:86:07:b5:
                    05:be:d4:4b:64:59:0e:6a:b8:52:51:01:1d:40:68:
                    b4:e1:a2:fd:5e
                ASN1 OID: prime256v1
                NIST CURVE: P-256
    Signature Algorithm: NULL
-----BEGIN CERTIFICATE-----
MIIB9TCCAZygAwIBAgIUUb0yr42Oj901ibGlrQ8BcqiJor0wCgYIKoZIzj0EAwIw
gYAxCzAJBgNVBAYTAlVTMQswCQYDVQQIDAJDQTEUMBIGA1UEBwwLU2FudGEgQ2xh
cmExHjAcBgNVBAoMFVJlYWwgVGltZSBJbm5vdmF0aW9uczEPMA0GA1UEAwwGUlRJ
IENBMR0wGwYJKoZIhvcNAQkBFg5zZWN1cmVAcnRpLmNvbTAeFw0yMTA0MjMwODM5
MjZaFw0yNjA0MjIwODM5MjZaMHUxCzAJBgNVBAYTAlVTMQswCQYDVQQIDAJDQTEe
MBwGA1UECgwVUmVhbCBUaW1lIElubm92YXRpb25zMR4wHAYJKoZIhvcNAQkBFg9t
ZUVDZHNhQHJ0aS5jb20xGTAXBgNVBAMMEGR0bHNleGFtcGxlRUNkc2EwWTATBgcq
hkjOPQIBBggqhkjOPQMBBwNCAAQXFwdF7badnQPyixO+a1weZ9LYe58DW6mDh05m
lwj7VwlTeBQf5L3/hYYHtQW+1EtkWQ5quFJRAR1AaLThov1eMAoGCCqGSM49BAMC
A0cAMEQCIHPj3pQQQ7H99HapnH69MzekIdyZGnaRgEZjUDtk63arAiBVMaQY//U2
f6JrGaR9NPri15RIPsVQ6oyBPnK6fPeVIQ==
-----END CERTIFICATE-----
