Certificate:
    Data:
        Version: 1 (0x0)
        Serial Number:
            5e:07:0b:a6:02:6e:67:d9:2b:2e:71:ef:fb:91:c0:60:6f:7d:84:7b
        Signature Algorithm: NULL
        Issuer: C = US, ST = CA, O = Real Time Innovations, emailAddress = youECdsa@rti.com, CN = dtlsexample2ECdsa
        Validity
            Not Before: Apr 23 08:39:26 2021 GMT
            Not After : Apr 22 08:39:26 2026 GMT
        Subject: C = US, ST = CA, O = Real Time Innovations, emailAddress = youECdsa@rti.com, CN = dtlsexample2ECdsa
        Subject Public Key Info:
            Public Key Algorithm: id-ecPublicKey
                Public-Key: (256 bit)
                pub:
                    04:f4:2f:60:a8:fc:9a:17:8e:f4:a2:24:2b:ca:cf:
                    27:01:19:b2:b8:f2:c3:05:50:73:2b:6c:16:12:d7:
                    69:2f:ae:cc:fa:a0:7e:b0:4b:ad:c4:6c:98:ae:0d:
                    f5:e6:a0:bb:04:87:ef:57:35:a3:25:29:dc:69:78:
                    b9:c6:cd:d4:86
                ASN1 OID: prime256v1
                NIST CURVE: P-256
    Signature Algorithm: NULL
-----BEGIN CERTIFICATE-----
MIIB+DCCAZ6gAwIBAgIUUb0yr42Oj901ibGlrQ8BcqiJor4wCgYIKoZIzj0EAwIw
gYAxCzAJBgNVBAYTAlVTMQswCQYDVQQIDAJDQTEUMBIGA1UEBwwLU2FudGEgQ2xh
cmExHjAcBgNVBAoMFVJlYWwgVGltZSBJbm5vdmF0aW9uczEPMA0GA1UEAwwGUlRJ
IENBMR0wGwYJKoZIhvcNAQkBFg5zZWN1cmVAcnRpLmNvbTAeFw0yMTA0MjMwODM5
MjZaFw0yNjA0MjIwODM5MjZaMHcxCzAJBgNVBAYTAlVTMQswCQYDVQQIDAJDQTEe
MBwGA1UECgwVUmVhbCBUaW1lIElubm92YXRpb25zMR8wHQYJKoZIhvcNAQkBFhB5
b3VFQ2RzYUBydGkuY29tMRowGAYDVQQDDBFkdGxzZXhhbXBsZTJFQ2RzYTBZMBMG
ByqGSM49AgEGCCqGSM49AwEHA0IABPQvYKj8mheO9KIkK8rPJwEZsrjywwVQcyts
FhLXaS+uzPqgfrBLrcRsmK4N9eaguwSH71c1oyUp3Gl4ucbN1IYwCgYIKoZIzj0E
AwIDSAAwRQIhAO3P8xLb1s8qVoo4p8gMkI01AgbRWqS/q94VcZDuZAxyAiBvyudO
AFZDvoAaoGmLTe1q0ShY2Yy/jrHfl835Y5zqPw==
-----END CERTIFICATE-----
