Certificate:
    Data:
        Version: 1 (0x0)
        Serial Number:
            57:6f:9e:dd:8d:c0:04:4a:fe:a0:1b:e6:ac:2d:cc:13:a3:b3:40:61
        Signature Algorithm: NULL
        Issuer: C = US, ST = CA, O = Real Time Innovations, emailAddress = youECdsa@rti.com, CN = dtlsexample3ECdsa
        Validity
            Not Before: Apr 23 08:39:35 2021 GMT
            Not After : Apr 22 08:39:35 2026 GMT
        Subject: C = US, ST = CA, O = Real Time Innovations, emailAddress = youECdsa@rti.com, CN = dtlsexample3ECdsa
        Subject Public Key Info:
            Public Key Algorithm: id-ecPublicKey
                Public-Key: (256 bit)
                pub:
                    04:26:90:bd:f0:3c:d7:1b:24:44:17:fd:79:87:e3:
                    4c:7c:a4:20:65:bc:67:71:37:3e:34:08:e8:d8:8b:
                    a0:32:a2:9b:d0:36:ce:08:cf:29:54:fb:78:5d:c7:
                    90:3e:51:d5:98:2d:1c:5b:67:84:69:3b:8d:31:11:
                    ca:d0:32:da:d7
                ASN1 OID: prime256v1
                NIST CURVE: P-256
    Signature Algorithm: NULL
-----BEGIN CERTIFICATE-----
MIIB+TCCAZ6gAwIBAgIUUb0yr42Oj901ibGlrQ8BcqiJosMwCgYIKoZIzj0EAwIw
gYAxCzAJBgNVBAYTAlVTMQswCQYDVQQIDAJDQTEUMBIGA1UEBwwLU2FudGEgQ2xh
cmExHjAcBgNVBAoMFVJlYWwgVGltZSBJbm5vdmF0aW9uczEPMA0GA1UEAwwGUlRJ
IENBMR0wGwYJKoZIhvcNAQkBFg5zZWN1cmVAcnRpLmNvbTAeFw0yMTA0MjMwODM5
MzlaFw0yNjA0MjIwODM5MzlaMHcxCzAJBgNVBAYTAlVTMQswCQYDVQQIDAJDQTEe
MBwGA1UECgwVUmVhbCBUaW1lIElubm92YXRpb25zMR8wHQYJKoZIhvcNAQkBFhB5
b3VFQ2RzYUBydGkuY29tMRowGAYDVQQDDBFkdGxzZXhhbXBsZTNFQ2RzYTBZMBMG
ByqGSM49AgEGCCqGSM49AwEHA0IABCaQvfA81xskRBf9eYfjTHykIGW8Z3E3PjQI
6NiLoDKim9A2zgjPKVT7eF3HkD5R1ZgtHFtnhGk7jTERytAy2tcwCgYIKoZIzj0E
AwIDSQAwRgIhAJNUjbA6I9gpiYrSSzikM4TL61dySm/QK9Lg1mEBFGt9AiEAryVo
dCpHHV8e/QEQ5kOCEeQUCUDBKkCe4hYOHiCC1xY=
-----END CERTIFICATE-----
