Certificate:
    Data:
        Version: 1 (0x0)
        Serial Number:
            4b:1a:79:22:a9:13:0b:55:9e:86:ad:7b:dd:68:47:9e:ec:99:bc:6e
        Signature Algorithm: ecdsa-with-SHA256
        Issuer: C = US, ST = CA, L = Santa Clara, O = Real Time Innovations, CN = RTI CA, emailAddress = secure@rti.com
        Validity
            Not Before: Apr 23 08:39:18 2021 GMT
            Not After : Apr 22 08:39:18 2026 GMT
        Subject: C = US, ST = CA, L = Santa Clara, O = Real Time Innovations, CN = RTI CA, emailAddress = secure@rti.com
        Subject Public Key Info:
            Public Key Algorithm: id-ecPublicKey
                Public-Key: (256 bit)
                pub:
                    04:d5:d0:60:4a:df:8c:96:22:f4:a6:f2:60:a5:96:
                    b4:3c:22:b1:57:4f:dc:c4:49:25:49:f1:47:33:c7:
                    ad:24:7c:bc:5f:28:dc:43:ea:b9:7e:4a:ac:fe:be:
                    0f:86:51:2c:d7:a4:65:85:ba:0d:20:3a:50:34:c7:
                    98:cd:27:d7:9a
                ASN1 OID: prime256v1
                NIST CURVE: P-256
    Signature Algorithm: ecdsa-with-SHA256
         30:44:02:20:18:d5:c2:07:fb:f5:8f:c7:ed:6d:0d:eb:a2:89:
         62:04:e1:a2:4b:57:e6:cf:54:8c:b5:92:b1:f3:37:ef:8d:67:
         02:20:27:14:83:4f:47:4f:3a:96:07:32:a5:25:74:70:11:14:
         76:8c:e5:3f:76:20:db:93:e6:24:00:29:af:bc:a9:cb
-----BEGIN CERTIFICATE-----
MIIB/DCCAaMCFEsaeSKpEwtVnoate91oR57smbxuMAoGCCqGSM49BAMCMIGAMQsw
CQYDVQQGEwJVUzELMAkGA1UECAwCQ0ExFDASBgNVBAcMC1NhbnRhIENsYXJhMR4w
HAYDVQQKDBVSZWFsIFRpbWUgSW5ub3ZhdGlvbnMxDzANBgNVBAMMBlJUSSBDQTEd
MBsGCSqGSIb3DQEJARYOc2VjdXJlQHJ0aS5jb20wHhcNMjEwNDIzMDgzOTE4WhcN
MjYwNDIyMDgzOTE4WjCBgDELMAkGA1UEBhMCVVMxCzAJBgNVBAgMAkNBMRQwEgYD
VQQHDAtTYW50YSBDbGFyYTEeMBwGA1UECgwVUmVhbCBUaW1lIElubm92YXRpb25z
MQ8wDQYDVQQDDAZSVEkgQ0ExHTAbBgkqhkiG9w0BCQEWDnNlY3VyZUBydGkuY29t
MFkwEwYHKoZIzj0CAQYIKoZIzj0DAQcDQgAE1dBgSt+MliL0pvJgpZa0PCKxV0/c
xEklSfFHM8etJHy8XyjcQ+q5fkqs/r4PhlEs16RlhboNIDpQNMeYzSfXmjAKBggq
hkjOPQQDAgNHADBEAiAY1cIH+/WPx+1tDeuiiWIE4aJLV+bPVIy1krHzN++NZwIg
JxSDT0dPOpYHMqUldHARFHaM5T92INuT5iQAKa+8qcs=
-----END CERTIFICATE-----
