Certificate:
    Data:
        Version: 1 (0x0)
        Serial Number:
            21:cd:f0:d3:a1:94:d0:57:f0:33:c1:bb:05:e9:55:95:1d:f9:bb:2a
        Signature Algorithm: ecdsa-with-SHA256
        Issuer: C = US, ST = CA, O = Company Name, CN = Company Name CA, emailAddress = support@company_name.com
        Validity
            Not Before: May 22 23:16:04 2025 GMT
            Not After : May 22 23:16:04 2027 GMT
        Subject: C = US, ST = CA, O = Company Name, emailAddress = support@company_name.com, CN = RsLocal
        Subject Public Key Info:
            Public Key Algorithm: rsaEncryption
                Public-Key: (2048 bit)
                Modulus:
                    00:e2:c8:e6:f7:3b:40:f9:cc:5c:4c:fb:d6:1b:81:
                    03:e6:7c:12:55:6f:af:27:7b:8a:37:20:18:93:75:
                    f8:a8:43:8a:28:76:32:ec:83:55:fb:b7:fd:1e:d9:
                    78:88:47:59:2f:a1:40:0f:a2:cd:ba:5a:c2:e8:bf:
                    56:65:38:99:4a:2a:70:53:00:87:e3:66:02:5a:f7:
                    9f:e9:c8:69:e2:14:f1:07:d7:10:13:47:8d:c2:56:
                    63:61:ee:f7:16:0a:d5:6f:05:80:ff:10:80:68:78:
                    2e:54:80:35:9f:aa:29:ee:70:4d:15:e6:db:ca:62:
                    49:34:78:65:57:70:77:0e:7d:14:91:97:69:69:01:
                    b2:37:f8:c2:5a:90:a4:bf:fb:36:65:3f:8b:58:54:
                    84:1b:be:31:07:d5:7f:03:62:20:8d:60:a7:24:ca:
                    38:a9:ec:ea:ff:e1:dc:5a:1d:bb:73:97:92:cc:95:
                    9d:21:70:f0:43:fa:4a:59:99:aa:99:49:67:7f:7c:
                    d6:5e:ec:19:ef:fb:65:8b:2f:53:9e:37:3f:b2:21:
                    d9:2f:9f:24:6e:a8:22:e0:d5:fd:d9:ae:4b:65:6d:
                    e9:01:4b:e4:2c:6b:03:d4:21:ea:6e:d3:8a:21:d8:
                    a3:36:c5:2b:40:16:ac:12:33:62:b1:1b:d1:63:d5:
                    ed:25
                Exponent: 65537 (0x10001)
    Signature Algorithm: ecdsa-with-SHA256
    Signature Value:
        30:46:02:21:00:81:fd:9b:03:3c:da:09:6b:f3:ec:bf:ba:b8:
        33:17:b6:2d:04:00:d5:39:40:ef:04:f9:8a:f2:eb:3c:62:b8:
        94:02:21:00:d7:26:7f:6c:13:fb:dc:4b:39:f4:69:f5:d5:8e:
        5e:07:e2:f6:73:1d:e7:db:ab:07:30:13:e2:61:58:66:a5:02
-----BEGIN CERTIFICATE-----
MIICpzCCAkwCFCHN8NOhlNBX8DPBuwXpVZUd+bsqMAoGCCqGSM49BAMCMHQxCzAJ
BgNVBAYTAlVTMQswCQYDVQQIDAJDQTEVMBMGA1UECgwMQ29tcGFueSBOYW1lMRgw
FgYDVQQDDA9Db21wYW55IE5hbWUgQ0ExJzAlBgkqhkiG9w0BCQEWGHN1cHBvcnRA
Y29tcGFueV9uYW1lLmNvbTAeFw0yNTA1MjIyMzE2MDRaFw0yNzA1MjIyMzE2MDRa
MGwxCzAJBgNVBAYTAlVTMQswCQYDVQQIDAJDQTEVMBMGA1UECgwMQ29tcGFueSBO
YW1lMScwJQYJKoZIhvcNAQkBFhhzdXBwb3J0QGNvbXBhbnlfbmFtZS5jb20xEDAO
BgNVBAMMB1JzTG9jYWwwggEiMA0GCSqGSIb3DQEBAQUAA4IBDwAwggEKAoIBAQDi
yOb3O0D5zFxM+9YbgQPmfBJVb68ne4o3IBiTdfioQ4oodjLsg1X7t/0e2XiIR1kv
oUAPos26WsLov1ZlOJlKKnBTAIfjZgJa95/pyGniFPEH1xATR43CVmNh7vcWCtVv
BYD/EIBoeC5UgDWfqinucE0V5tvKYkk0eGVXcHcOfRSRl2lpAbI3+MJakKS/+zZl
P4tYVIQbvjEH1X8DYiCNYKckyjip7Or/4dxaHbtzl5LMlZ0hcPBD+kpZmaqZSWd/
fNZe7Bnv+2WLL1OeNz+yIdkvnyRuqCLg1f3ZrktlbekBS+QsawPUIepu04oh2KM2
xStAFqwSM2KxG9Fj1e0lAgMBAAEwCgYIKoZIzj0EAwIDSQAwRgIhAIH9mwM82glr
8+y/urgzF7YtBADVOUDvBPmK8us8YriUAiEA1yZ/bBP73Es59Gn11Y5eB+L2cx3n
26sHMBPiYVhmpQI=
-----END CERTIFICATE-----
