Certificate:
    Data:
        Version: 1 (0x0)
        Serial Number:
            43:a7:b0:ba:7f:cc:36:ab:d3:19:4d:4a:70:47:17:bc:7f:35:f5:fd
        Signature Algorithm: ecdsa-with-SHA256
        Issuer: C = US, ST = CA, O = Company Name, CN = Company Name CA, emailAddress = support@company_name.com
        Validity
            Not Before: May 22 23:16:04 2025 GMT
            Not After : May 22 23:16:04 2027 GMT
        Subject: C = US, ST = CA, O = Company Name, emailAddress = support@company_name.com, CN = RsPassive
        Subject Public Key Info:
            Public Key Algorithm: rsaEncryption
                Public-Key: (2048 bit)
                Modulus:
                    00:f2:3c:e9:c8:34:a1:27:0c:13:88:44:9c:0c:f7:
                    bd:a6:ce:88:96:a4:60:d0:ae:8a:68:42:81:9e:3d:
                    6b:c3:4f:d7:d5:f6:3f:7d:79:a9:f4:86:ff:0b:f4:
                    8f:f1:6d:2f:07:93:de:b0:21:9b:3a:0f:36:c4:96:
                    36:c5:c7:cb:e4:9c:33:59:3f:3d:09:9e:ac:ae:75:
                    a0:22:7f:87:bd:34:36:a4:a0:6a:d0:43:7f:34:c3:
                    15:4a:a9:70:b6:ff:77:a5:d5:2c:a9:0d:64:f7:e0:
                    eb:16:f6:22:60:70:f9:36:c3:76:11:d7:f6:45:de:
                    76:4c:83:05:52:e1:16:47:17:73:0a:ac:6f:43:6b:
                    6a:64:41:20:b1:83:41:6c:c3:59:05:71:25:66:58:
                    e3:71:f0:fa:f0:c7:88:c8:c2:5c:bd:fa:66:17:1c:
                    48:1a:f0:4b:ac:7d:4a:f1:6d:d3:aa:01:59:7e:f2:
                    33:de:08:43:67:03:e1:6e:42:a1:3d:28:d1:a9:c2:
                    d9:d9:ea:80:ee:d9:85:a1:a0:96:9c:af:f4:76:18:
                    1a:4d:d3:5e:73:19:6a:ca:7d:ea:af:d4:83:36:e5:
                    39:16:88:79:29:aa:29:37:1e:8b:2c:8c:32:8f:c5:
                    02:78:39:e2:2b:ef:76:aa:94:b0:06:21:19:19:0e:
                    08:b1
                Exponent: 65537 (0x10001)
    Signature Algorithm: ecdsa-with-SHA256
    Signature Value:
        30:46:02:21:00:fa:b3:30:13:e8:28:23:05:3b:25:ee:1f:c3:
        96:5d:d2:83:d1:f0:cf:46:f5:83:a5:ec:59:ef:c4:75:fd:c7:
        4f:02:21:00:85:45:65:91:0a:bd:e3:ee:5e:2f:83:2e:52:03:
        9d:83:fd:88:e2:dc:1d:d6:0d:13:6e:55:4c:df:be:29:e3:10
-----BEGIN CERTIFICATE-----
MIICqTCCAk4CFEOnsLp/zDar0xlNSnBHF7x/NfX9MAoGCCqGSM49BAMCMHQxCzAJ
BgNVBAYTAlVTMQswCQYDVQQIDAJDQTEVMBMGA1UECgwMQ29tcGFueSBOYW1lMRgw
FgYDVQQDDA9Db21wYW55IE5hbWUgQ0ExJzAlBgkqhkiG9w0BCQEWGHN1cHBvcnRA
Y29tcGFueV9uYW1lLmNvbTAeFw0yNTA1MjIyMzE2MDRaFw0yNzA1MjIyMzE2MDRa
MG4xCzAJBgNVBAYTAlVTMQswCQYDVQQIDAJDQTEVMBMGA1UECgwMQ29tcGFueSBO
YW1lMScwJQYJKoZIhvcNAQkBFhhzdXBwb3J0QGNvbXBhbnlfbmFtZS5jb20xEjAQ
BgNVBAMMCVJzUGFzc2l2ZTCCASIwDQYJKoZIhvcNAQEBBQADggEPADCCAQoCggEB
API86cg0oScME4hEnAz3vabOiJakYNCuimhCgZ49a8NP19X2P315qfSG/wv0j/Ft
LweT3rAhmzoPNsSWNsXHy+ScM1k/PQmerK51oCJ/h700NqSgatBDfzTDFUqpcLb/
d6XVLKkNZPfg6xb2ImBw+TbDdhHX9kXedkyDBVLhFkcXcwqsb0NramRBILGDQWzD
WQVxJWZY43Hw+vDHiMjCXL36ZhccSBrwS6x9SvFt06oBWX7yM94IQ2cD4W5CoT0o
0anC2dnqgO7ZhaGglpyv9HYYGk3TXnMZasp96q/UgzblORaIeSmqKTceiyyMMo/F
Ang54ivvdqqUsAYhGRkOCLECAwEAATAKBggqhkjOPQQDAgNJADBGAiEA+rMwE+go
IwU7Je4fw5Zd0oPR8M9G9YOl7FnvxHX9x08CIQCFRWWRCr3j7l4vgy5SA52D/Yji
3B3WDRNuVUzfvinjEA==
-----END CERTIFICATE-----
